target datalayout = "e-m:e-p270:32:32-p271:32:32-p272:64:64-i64:64-i128:128-f80:128-n8:16:32:64-S128"
target triple = "x86_64-pc-linux-gnu"

%struct.strvec = type { ptr, i64, i64 }
%struct.strbuf = type { i64, i64, ptr }
%struct.object_id = type { [32 x i8], i32 }
%struct.hashmap = type { ptr, ptr, ptr, i32, i32, i32, i32, i8 }
%struct.oidset = type { %struct.kh_oid_set }
%struct.kh_oid_set = type { i32, i32, i32, i32, ptr, ptr, ptr }
%struct.rev_info = type { ptr, %struct.object_array, ptr, %struct.object_array, %struct.rev_cmdline_info, %struct.list_objects_filter_options, %struct.ref_exclusions, ptr, ptr, ptr, %struct.pathspec, i32, i32, i32, i32, i64, i32, i32, %struct.date_mode, i32, i32, i32, i32, ptr, i32, i32, ptr, ptr, i32, ptr, ptr, %struct.ident_split, ptr, i32, ptr, ptr, ptr, i32, i32, i32, ptr, %struct.grep_opt, ptr, i32, i32, i64, i64, i64, i32, i32, ptr, ptr, ptr, %struct.diff_options, %struct.diff_options, ptr, %struct.decoration, %struct.decoration, %struct.decoration, %struct.display_notes_opt, ptr, ptr, ptr, ptr, ptr, i32, ptr, i32, i32, i32, %struct.decoration, ptr, ptr, ptr, ptr, ptr, ptr, ptr, i32, ptr, i32, ptr, %struct.oidset }
%struct.object_array = type { i32, i32, ptr }
%struct.rev_cmdline_info = type { i32, i32, ptr }
%struct.list_objects_filter_options = type { %struct.strbuf, i32, i8, ptr, i64, i64, i32, i64, i64, ptr }
%struct.ref_exclusions = type { %struct.string_list, %struct.strvec, i8 }
%struct.string_list = type { ptr, i64, i64, i8, ptr }
%struct.pathspec = type { i32, i8, i32, i32, ptr }
%struct.date_mode = type { i32, i32, ptr }
%struct.ident_split = type { ptr, ptr, ptr, ptr, ptr, ptr, ptr, ptr }
%struct.grep_opt = type { ptr, ptr, ptr, ptr, ptr, ptr, i32, i32, i32, i32, i32, i32, i32, i32, i32, i32, i32, i32, i32, i32, i32, i32, i32, i32, i32, i32, i32, i32, i32, i32, i32, i32, [9 x [75 x i8]], i32, i32, i32, i32, i32, i32, i32, ptr, ptr, ptr }
%struct.diff_options = type { ptr, ptr, i32, i32, ptr, i32, ptr, i64, i64, ptr, ptr, ptr, ptr, %struct.diff_flags, i32, i32, i32, i32, i32, i32, i32, i32, i32, i32, i32, i32, i32, i32, i32, i32, i32, i32, i32, i32, i32, i32, ptr, i32, ptr, i32, i32, ptr, i64, i64, i32, i32, i32, i32, ptr, i32, i32, ptr, i32, i32, ptr, ptr, i32, [3 x i8], %struct.pathspec, ptr, ptr, ptr, ptr, ptr, ptr, ptr, ptr, i32, ptr, i32, i32, ptr, ptr, i32 }
%struct.diff_flags = type { i32, i32, i32, i32, i32, i32, i32, i32, i32, i32, i32, i32, i32, i32, i32, i32, i32, i32, i32, i32, i32, i32, i32, i32, i32, i32, i32, i32, i32, i32, i32, i32, i32, i32, i32 }
%struct.display_notes_opt = type { i32, %struct.string_list }
%struct.decoration = type { ptr, i32, i32, ptr }
%struct.worktree = type { ptr, ptr, ptr, ptr, ptr, ptr, %struct.object_id, i32, i32, i32, i32, i32 }
%struct.index_state = type { ptr, i32, i32, i32, i32, ptr, ptr, ptr, %struct.cache_time, i8, i32, %struct.hashmap, %struct.hashmap, %struct.object_id, ptr, ptr, ptr, ptr, ptr, ptr, ptr }
%struct.cache_time = type { i32, i32 }
%struct.repository = type { ptr, ptr, ptr, ptr, ptr, %struct.strmap, %struct.strmap, %struct.repo_path_cache, ptr, ptr, ptr, ptr, %struct.repo_settings, ptr, ptr, ptr, ptr, ptr, ptr, i32, i32, i32, ptr, ptr, i32, i32, i8 }
%struct.strmap = type { %struct.hashmap, ptr, i8 }
%struct.repo_path_cache = type { ptr, ptr, ptr, ptr, ptr, ptr, ptr }
%struct.repo_settings = type { i32, i32, i32, i32, i32, i32, i32, i32, i32, i32, i32, i32, ptr, i32, i32, i32, i32, i32, i32, i32, i64, i64, i64 }

@the_repository = external global ptr, align 8
@.str.7 = private unnamed_addr constant [6 x i8] c"index\00", align 1

; Function Attrs: nounwind uwtable
define dso_local void @add_index_objects_to_pending(ptr noundef %0, i32 noundef %1) #0 {
  %3 = alloca ptr, align 8
  %4 = alloca i32, align 4
  %5 = alloca ptr, align 8
  %6 = alloca ptr, align 8
  %7 = alloca i32, align 4
  %8 = alloca ptr, align 8
  %9 = alloca %struct.index_state, align 8
  store ptr %0, ptr %3, align 8, !tbaa !88
  store i32 %1, ptr %4, align 4, !tbaa !9
  call void @llvm.lifetime.start.p0(i64 8, ptr %5) #12
  call void @llvm.lifetime.start.p0(i64 8, ptr %6) #12
  %10 = load ptr, ptr %3, align 8, !tbaa !88
  %11 = getelementptr inbounds nuw %struct.rev_info, ptr %10, i32 0, i32 2
  %12 = load ptr, ptr %11, align 8, !tbaa !105
  %13 = call i32 @repo_read_index(ptr noundef %12)
  %14 = load ptr, ptr %3, align 8, !tbaa !88
  %15 = load ptr, ptr %3, align 8, !tbaa !88
  %16 = getelementptr inbounds nuw %struct.rev_info, ptr %15, i32 0, i32 2
  %17 = load ptr, ptr %16, align 8, !tbaa !105
  %18 = getelementptr inbounds nuw %struct.repository, ptr %17, i32 0, i32 15
  %19 = load ptr, ptr %18, align 8, !tbaa !175
  %20 = load i32, ptr %4, align 4, !tbaa !9
  call void @do_add_index_objects_to_pending(ptr noundef %14, ptr noundef %19, i32 noundef %20)
  %21 = load ptr, ptr %3, align 8, !tbaa !88
  %22 = getelementptr inbounds nuw %struct.rev_info, ptr %21, i32 0, i32 15
  %23 = load i64, ptr %22, align 8
  %24 = lshr i64 %23, 12
  %25 = and i64 %24, 1
  %26 = trunc i64 %25 to i32
  %27 = icmp ne i32 %26, 0
  br i1 %27, label %28, label %29

28:                                               ; preds = %2
  store i32 1, ptr %7, align 4
  br label %68

29:                                               ; preds = %2
  %30 = call ptr @get_worktrees()
  store ptr %30, ptr %5, align 8, !tbaa !169
  %31 = load ptr, ptr %5, align 8, !tbaa !169
  store ptr %31, ptr %6, align 8, !tbaa !169
  br label %32

32:                                               ; preds = %63, %29
  %33 = load ptr, ptr %6, align 8, !tbaa !169
  %34 = load ptr, ptr %33, align 8, !tbaa !171
  %35 = icmp ne ptr %34, null
  br i1 %35, label %36, label %66

36:                                               ; preds = %32
  call void @llvm.lifetime.start.p0(i64 8, ptr %8) #12
  %37 = load ptr, ptr %6, align 8, !tbaa !169
  %38 = load ptr, ptr %37, align 8, !tbaa !171
  store ptr %38, ptr %8, align 8, !tbaa !171
  call void @llvm.lifetime.start.p0(i64 256, ptr %9) #12
  call void @llvm.memset.p0.i64(ptr align 8 %9, i8 0, i64 256, i1 false)
  %39 = getelementptr inbounds nuw %struct.index_state, ptr %9, i32 0, i32 19
  %40 = load ptr, ptr %3, align 8, !tbaa !88
  %41 = getelementptr inbounds nuw %struct.rev_info, ptr %40, i32 0, i32 2
  %42 = load ptr, ptr %41, align 8, !tbaa !105
  store ptr %42, ptr %39, align 8, !tbaa !193
  %43 = load ptr, ptr %8, align 8, !tbaa !171
  %44 = getelementptr inbounds nuw %struct.worktree, ptr %43, i32 0, i32 9
  %45 = load i32, ptr %44, align 4, !tbaa !172
  %46 = icmp ne i32 %45, 0
  br i1 %46, label %47, label %48

47:                                               ; preds = %36
  store i32 4, ptr %7, align 4
  br label %60

48:                                               ; preds = %36
  %49 = load ptr, ptr @the_repository, align 8, !tbaa !43
  %50 = load ptr, ptr %8, align 8, !tbaa !171
  %51 = call ptr (ptr, ptr, ptr, ...) @worktree_git_path(ptr noundef %49, ptr noundef %50, ptr noundef @.str.7)
  %52 = load ptr, ptr %8, align 8, !tbaa !171
  %53 = call ptr @get_worktree_git_dir(ptr noundef %52)
  %54 = call i32 @read_index_from(ptr noundef %9, ptr noundef %51, ptr noundef %53)
  %55 = icmp sgt i32 %54, 0
  br i1 %55, label %56, label %59

56:                                               ; preds = %48
  %57 = load ptr, ptr %3, align 8, !tbaa !88
  %58 = load i32, ptr %4, align 4, !tbaa !9
  call void @do_add_index_objects_to_pending(ptr noundef %57, ptr noundef %9, i32 noundef %58)
  br label %59

59:                                               ; preds = %56, %48
  call void @discard_index(ptr noundef %9)
  store i32 0, ptr %7, align 4
  br label %60

60:                                               ; preds = %59, %47
  call void @llvm.lifetime.end.p0(i64 256, ptr %9) #12
  call void @llvm.lifetime.end.p0(i64 8, ptr %8) #12
  %61 = load i32, ptr %7, align 4
  switch i32 %61, label %71 [
    i32 0, label %62
    i32 4, label %63
  ]

62:                                               ; preds = %60
  br label %63

63:                                               ; preds = %62, %60
  %64 = load ptr, ptr %6, align 8, !tbaa !169
  %65 = getelementptr inbounds nuw ptr, ptr %64, i32 1
  store ptr %65, ptr %6, align 8, !tbaa !169
  br label %32, !llvm.loop !203

66:                                               ; preds = %32
  %67 = load ptr, ptr %5, align 8, !tbaa !169
  call void @free_worktrees(ptr noundef %67)
  store i32 0, ptr %7, align 4
  br label %68

68:                                               ; preds = %66, %28
  call void @llvm.lifetime.end.p0(i64 8, ptr %6) #12
  call void @llvm.lifetime.end.p0(i64 8, ptr %5) #12
  %69 = load i32, ptr %7, align 4
  switch i32 %69, label %71 [
    i32 0, label %70
    i32 1, label %70
  ]

70:                                               ; preds = %68, %68
  ret void

71:                                               ; preds = %68, %60
  unreachable
}