; Function Attrs: nounwind uwtable
define dso_local void @add_index_objects_to_pending(ptr noundef %0, i32 noundef %1) local_unnamed_addr #2 {
  %3 = alloca %struct.index_state, align 8
  %4 = getelementptr inbounds nuw i8, ptr %0, i64 24
  %5 = load ptr, ptr %4, align 8, !tbaa !73
  %6 = tail call i32 @repo_read_index(ptr noundef %5) #26
  %7 = load ptr, ptr %4, align 8, !tbaa !73
  %8 = getelementptr inbounds nuw i8, ptr %7, i64 384
  %9 = load ptr, ptr %8, align 8, !tbaa !136
  tail call fastcc void @do_add_index_objects_to_pending(ptr noundef %0, ptr noundef %9, i32 noundef %1)
  %10 = getelementptr inbounds nuw i8, ptr %0, i64 288
  %11 = load i64, ptr %10, align 8
  %12 = and i64 %11, 4096
  %.not = icmp eq i64 %12, 0
  br i1 %.not, label %13, label %33

13:                                               ; preds = %2
  %14 = tail call ptr @get_worktrees() #26
  %15 = load ptr, ptr %14, align 8, !tbaa !129
  %.not1618 = icmp eq ptr %15, null
  br i1 %.not1618, label %._crit_edge, label %.lr.ph

.lr.ph:                                           ; preds = %13
  %16 = getelementptr inbounds nuw i8, ptr %3, i64 240
  br label %17

17:                                               ; preds = %.lr.ph, %30
  %18 = phi ptr [ %15, %.lr.ph ], [ %32, %30 ]
  %.019 = phi ptr [ %14, %.lr.ph ], [ %31, %30 ]
  call void @llvm.lifetime.start.p0(i64 256, ptr nonnull %3) #26
  call void @llvm.memset.p0.i64(ptr noundef nonnull align 8 dereferenceable(256) %3, i8 0, i64 256, i1 false)
  %19 = load ptr, ptr %4, align 8, !tbaa !73
  store ptr %19, ptr %16, align 8, !tbaa !154
  %20 = getelementptr inbounds nuw i8, ptr %18, i64 92
  %21 = load i32, ptr %20, align 4, !tbaa !130
  %.not17 = icmp eq i32 %21, 0
  br i1 %.not17, label %22, label %30

22:                                               ; preds = %17
  %23 = load ptr, ptr @the_repository, align 8, !tbaa !71
  %24 = call ptr (ptr, ptr, ptr, ...) @worktree_git_path(ptr noundef %23, ptr noundef nonnull %18, ptr noundef nonnull @.str.7) #26
  %25 = call ptr @get_worktree_git_dir(ptr noundef nonnull %18) #26
  %26 = call i32 @read_index_from(ptr noundef nonnull %3, ptr noundef %24, ptr noundef %25) #26
  %27 = icmp sgt i32 %26, 0
  br i1 %27, label %28, label %29

28:                                               ; preds = %22
  call fastcc void @do_add_index_objects_to_pending(ptr noundef nonnull %0, ptr noundef nonnull %3, i32 noundef %1)
  br label %29

29:                                               ; preds = %28, %22
  call void @discard_index(ptr noundef nonnull %3) #26
  br label %30

30:                                               ; preds = %17, %29
  call void @llvm.lifetime.end.p0(i64 256, ptr nonnull %3) #26
  %31 = getelementptr inbounds nuw i8, ptr %.019, i64 8
  %32 = load ptr, ptr %31, align 8, !tbaa !129
  %.not16 = icmp eq ptr %32, null
  br i1 %.not16, label %._crit_edge, label %17, !llvm.loop !164

._crit_edge:                                      ; preds = %30, %13
  call void @free_worktrees(ptr noundef nonnull %14) #26
  br label %33

33:                                               ; preds = %2, %._crit_edge
  ret void
}